target datalayout = "e-m:e-p270:32:32-p271:32:32-p272:64:64-i64:64-i128:128-f80:128-n8:16:32:64-S128"
target triple = "x86_64-pc-linux-gnu"

%struct.expert_field = type { i32, i32 }
%struct.MessageHeader = type { [4 x i8], %struct.Version, i8, i8, i32, i32, i32, ptr }
%struct.Version = type { i8, i8 }

@hf_GIAS_Library_get_other_libraries_return_loop = internal global i32 0, align 4
@hf_GIAS_AccessCriteria_userID = internal global i32 0, align 4
@hf_GIAS_AccessCriteria_password = internal global i32 0, align 4
@hf_GIAS_AccessCriteria_licenseKey = internal global i32 0, align 4
@hf_GIAS_LibraryDescription_library_name = internal global i32 0, align 4
@hf_GIAS_LibraryDescription_library_description = internal global i32 0, align 4
@hf_GIAS_LibraryDescription_library_version_number = internal global i32 0, align 4
@ei_gias_unknown_giop_msg = internal global %struct.expert_field zeroinitializer, align 4
@ei_gias_unknown_exception = internal global %struct.expert_field zeroinitializer, align 4
@ett_giop_struct = internal global i32 0, align 4
@ett_giop_sequence = internal global i32 0, align 4
@boundary = internal global i32 12, align 4
@.str.826 = private unnamed_addr constant [21 x i8] c"Unknown exception %d\00", align 1
@.str.827 = private unnamed_addr constant [24 x i8] c"Unknown GIOP message %d\00", align 1
@.str.964 = private unnamed_addr constant [27 x i8] c"struct GIAS_AccessCriteria\00", align 1
@.str.965 = private unnamed_addr constant [49 x i8] c"sequence GIAS_Library_get_other_libraries_return\00", align 1
@.str.966 = private unnamed_addr constant [31 x i8] c"struct GIAS_LibraryDescription\00", align 1

; Function Attrs: null_pointer_is_valid sspstrong uwtable
define internal void @decode_GIAS_LibraryDescription_st(ptr noundef %0, ptr noundef %1, ptr noundef %2, ptr noundef %3, ptr noundef %4, ptr noundef %5, ptr noundef %6, i1 noundef zeroext %7) #0 {
  %9 = alloca ptr, align 8
  %10 = alloca ptr, align 8
  %11 = alloca ptr, align 8
  %12 = alloca ptr, align 8
  %13 = alloca ptr, align 8
  %14 = alloca ptr, align 8
  %15 = alloca ptr, align 8
  %16 = alloca i8, align 1
  store ptr %0, ptr %9, align 8
  store ptr %1, ptr %10, align 8
  store ptr %2, ptr %11, align 8
  store ptr %3, ptr %12, align 8
  store ptr %4, ptr %13, align 8
  store ptr %5, ptr %14, align 8
  store ptr %6, ptr %15, align 8
  %17 = zext i1 %7 to i8
  store i8 %17, ptr %16, align 1
  %18 = load ptr, ptr %11, align 8
  %19 = load ptr, ptr %9, align 8
  %20 = load ptr, ptr %13, align 8
  %21 = load i8, ptr %16, align 1, !range !6, !noundef !7
  %22 = trunc i8 %21 to i1
  %23 = load i32, ptr @boundary, align 4
  %24 = load i32, ptr @hf_GIAS_LibraryDescription_library_name, align 4
  call void @giop_add_CDR_string(ptr noundef %18, ptr noundef %19, ptr noundef %20, i1 noundef zeroext %22, i32 noundef %23, i32 noundef %24)
  %25 = load ptr, ptr %11, align 8
  %26 = load ptr, ptr %9, align 8
  %27 = load ptr, ptr %13, align 8
  %28 = load i8, ptr %16, align 1, !range !6, !noundef !7
  %29 = trunc i8 %28 to i1
  %30 = load i32, ptr @boundary, align 4
  %31 = load i32, ptr @hf_GIAS_LibraryDescription_library_description, align 4
  call void @giop_add_CDR_string(ptr noundef %25, ptr noundef %26, ptr noundef %27, i1 noundef zeroext %29, i32 noundef %30, i32 noundef %31)
  %32 = load ptr, ptr %11, align 8
  %33 = load ptr, ptr %9, align 8
  %34 = load ptr, ptr %13, align 8
  %35 = load i8, ptr %16, align 1, !range !6, !noundef !7
  %36 = trunc i8 %35 to i1
  %37 = load i32, ptr @boundary, align 4
  %38 = load i32, ptr @hf_GIAS_LibraryDescription_library_version_number, align 4
  call void @giop_add_CDR_string(ptr noundef %32, ptr noundef %33, ptr noundef %34, i1 noundef zeroext %36, i32 noundef %37, i32 noundef %38)
  ret void
}

; Function Attrs: null_pointer_is_valid sspstrong uwtable
define internal void @decode_GIAS_AccessCriteria_st(ptr noundef %0, ptr noundef %1, ptr noundef %2, ptr noundef %3, ptr noundef %4, ptr noundef %5, ptr noundef %6, i1 noundef zeroext %7) #0 {
  %9 = alloca ptr, align 8
  %10 = alloca ptr, align 8
  %11 = alloca ptr, align 8
  %12 = alloca ptr, align 8
  %13 = alloca ptr, align 8
  %14 = alloca ptr, align 8
  %15 = alloca ptr, align 8
  %16 = alloca i8, align 1
  store ptr %0, ptr %9, align 8
  store ptr %1, ptr %10, align 8
  store ptr %2, ptr %11, align 8
  store ptr %3, ptr %12, align 8
  store ptr %4, ptr %13, align 8
  store ptr %5, ptr %14, align 8
  store ptr %6, ptr %15, align 8
  %17 = zext i1 %7 to i8
  store i8 %17, ptr %16, align 1
  %18 = load ptr, ptr %11, align 8
  %19 = load ptr, ptr %9, align 8
  %20 = load ptr, ptr %13, align 8
  %21 = load i8, ptr %16, align 1, !range !6, !noundef !7
  %22 = trunc i8 %21 to i1
  %23 = load i32, ptr @boundary, align 4
  %24 = load i32, ptr @hf_GIAS_AccessCriteria_userID, align 4
  call void @giop_add_CDR_string(ptr noundef %18, ptr noundef %19, ptr noundef %20, i1 noundef zeroext %22, i32 noundef %23, i32 noundef %24)
  %25 = load ptr, ptr %11, align 8
  %26 = load ptr, ptr %9, align 8
  %27 = load ptr, ptr %13, align 8
  %28 = load i8, ptr %16, align 1, !range !6, !noundef !7
  %29 = trunc i8 %28 to i1
  %30 = load i32, ptr @boundary, align 4
  %31 = load i32, ptr @hf_GIAS_AccessCriteria_password, align 4
  call void @giop_add_CDR_string(ptr noundef %25, ptr noundef %26, ptr noundef %27, i1 noundef zeroext %29, i32 noundef %30, i32 noundef %31)
  %32 = load ptr, ptr %11, align 8
  %33 = load ptr, ptr %9, align 8
  %34 = load ptr, ptr %13, align 8
  %35 = load i8, ptr %16, align 1, !range !6, !noundef !7
  %36 = trunc i8 %35 to i1
  %37 = load i32, ptr @boundary, align 4
  %38 = load i32, ptr @hf_GIAS_AccessCriteria_licenseKey, align 4
  call void @giop_add_CDR_string(ptr noundef %32, ptr noundef %33, ptr noundef %34, i1 noundef zeroext %36, i32 noundef %37, i32 noundef %38)
  ret void
}

; Function Attrs: null_pointer_is_valid sspstrong uwtable
define internal void @decode_GIAS_Library_get_other_libraries(ptr noundef %0, ptr noundef %1, ptr noundef %2, ptr noundef %3, ptr noundef %4, ptr noundef %5, ptr noundef %6, i1 noundef zeroext %7) #0 {
  %9 = alloca ptr, align 8
  %10 = alloca ptr, align 8
  %11 = alloca ptr, align 8
  %12 = alloca ptr, align 8
  %13 = alloca ptr, align 8
  %14 = alloca ptr, align 8
  %15 = alloca ptr, align 8
  %16 = alloca i8, align 1
  %17 = alloca i32, align 4
  %18 = alloca i32, align 4
  %19 = alloca ptr, align 8
  %20 = alloca ptr, align 8
  %21 = alloca ptr, align 8
  store ptr %0, ptr %9, align 8
  store ptr %1, ptr %10, align 8
  store ptr %2, ptr %11, align 8
  store ptr %3, ptr %12, align 8
  store ptr %4, ptr %13, align 8
  store ptr %5, ptr %14, align 8
  store ptr %6, ptr %15, align 8
  %22 = zext i1 %7 to i8
  store i8 %22, ptr %16, align 1
  call void @llvm.lifetime.start.p0(i64 4, ptr %17) #6
  call void @llvm.lifetime.start.p0(i64 4, ptr %18) #6
  %23 = load ptr, ptr %14, align 8
  %24 = getelementptr inbounds nuw %struct.MessageHeader, ptr %23, i32 0, i32 3
  %25 = load i8, ptr %24, align 1
  %26 = zext i8 %25 to i32
  switch i32 %26, label %102 [
    i32 0, label %27
    i32 1, label %43
  ]

27:                                               ; preds = %8
  call void @llvm.lifetime.start.p0(i64 8, ptr %19) #6
  %28 = load ptr, ptr %11, align 8
  %29 = load ptr, ptr %9, align 8
  %30 = load ptr, ptr %13, align 8
  %31 = load i32, ptr %30, align 4
  %32 = load i32, ptr @ett_giop_struct, align 4
  %33 = call ptr @proto_tree_add_subtree(ptr noundef %28, ptr noundef %29, i32 noundef %31, i32 noundef -1, i32 noundef %32, ptr noundef null, ptr noundef @.str.964)
  store ptr %33, ptr %19, align 8
  %34 = load ptr, ptr %9, align 8
  %35 = load ptr, ptr %10, align 8
  %36 = load ptr, ptr %19, align 8
  %37 = load ptr, ptr %12, align 8
  %38 = load ptr, ptr %13, align 8
  %39 = load ptr, ptr %14, align 8
  %40 = load ptr, ptr %15, align 8
  %41 = load i8, ptr %16, align 1, !range !6, !noundef !7
  %42 = trunc i8 %41 to i1
  call void @decode_GIAS_AccessCriteria_st(ptr noundef %34, ptr noundef %35, ptr noundef %36, ptr noundef %37, ptr noundef %38, ptr noundef %39, ptr noundef %40, i1 noundef zeroext %42)
  call void @llvm.lifetime.end.p0(i64 8, ptr %19) #6
  br label %110

43:                                               ; preds = %8
  %44 = load ptr, ptr %14, align 8
  %45 = getelementptr inbounds nuw %struct.MessageHeader, ptr %44, i32 0, i32 6
  %46 = load i32, ptr %45, align 8
  switch i32 %46, label %94 [
    i32 0, label %47
    i32 1, label %101
  ]

47:                                               ; preds = %43
  %48 = load ptr, ptr %9, align 8
  %49 = load ptr, ptr %13, align 8
  %50 = load i8, ptr %16, align 1, !range !6, !noundef !7
  %51 = trunc i8 %50 to i1
  %52 = load i32, ptr @boundary, align 4
  %53 = call i32 @get_CDR_ulong(ptr noundef %48, ptr noundef %49, i1 noundef zeroext %51, i32 noundef %52)
  store i32 %53, ptr %17, align 4
  %54 = load ptr, ptr %11, align 8
  %55 = load i32, ptr @hf_GIAS_Library_get_other_libraries_return_loop, align 4
  %56 = load ptr, ptr %9, align 8
  %57 = load ptr, ptr %13, align 8
  %58 = load i32, ptr %57, align 4
  %59 = sub i32 %58, 4
  %60 = load i32, ptr %17, align 4
  %61 = call ptr @proto_tree_add_uint(ptr noundef %54, i32 noundef %55, ptr noundef %56, i32 noundef %59, i32 noundef 4, i32 noundef %60)
  call void @llvm.lifetime.start.p0(i64 8, ptr %20) #6
  %62 = load ptr, ptr %11, align 8
  store ptr %62, ptr %20, align 8
  %63 = load ptr, ptr %11, align 8
  %64 = load ptr, ptr %9, align 8
  %65 = load ptr, ptr %13, align 8
  %66 = load i32, ptr %65, align 4
  %67 = load i32, ptr @ett_giop_sequence, align 4
  %68 = call ptr @proto_tree_add_subtree(ptr noundef %63, ptr noundef %64, i32 noundef %66, i32 noundef -1, i32 noundef %67, ptr noundef null, ptr noundef @.str.965)
  store ptr %68, ptr %11, align 8
  store i32 0, ptr %18, align 4
  br label %69

69:                                               ; preds = %89, %47
  %70 = load i32, ptr %18, align 4
  %71 = load i32, ptr %17, align 4
  %72 = icmp ult i32 %70, %71
  br i1 %72, label %73, label %92

73:                                               ; preds = %69
  call void @llvm.lifetime.start.p0(i64 8, ptr %21) #6
  %74 = load ptr, ptr %11, align 8
  %75 = load ptr, ptr %9, align 8
  %76 = load ptr, ptr %13, align 8
  %77 = load i32, ptr %76, align 4
  %78 = load i32, ptr @ett_giop_struct, align 4
  %79 = call ptr @proto_tree_add_subtree(ptr noundef %74, ptr noundef %75, i32 noundef %77, i32 noundef -1, i32 noundef %78, ptr noundef null, ptr noundef @.str.966)
  store ptr %79, ptr %21, align 8
  %80 = load ptr, ptr %9, align 8
  %81 = load ptr, ptr %10, align 8
  %82 = load ptr, ptr %21, align 8
  %83 = load ptr, ptr %12, align 8
  %84 = load ptr, ptr %13, align 8
  %85 = load ptr, ptr %14, align 8
  %86 = load ptr, ptr %15, align 8
  %87 = load i8, ptr %16, align 1, !range !6, !noundef !7
  %88 = trunc i8 %87 to i1
  call void @decode_GIAS_LibraryDescription_st(ptr noundef %80, ptr noundef %81, ptr noundef %82, ptr noundef %83, ptr noundef %84, ptr noundef %85, ptr noundef %86, i1 noundef zeroext %88)
  call void @llvm.lifetime.end.p0(i64 8, ptr %21) #6
  br label %89

89:                                               ; preds = %73
  %90 = load i32, ptr %18, align 4
  %91 = add i32 %90, 1
  store i32 %91, ptr %18, align 4
  br label %69, !llvm.loop !72

92:                                               ; preds = %69
  %93 = load ptr, ptr %20, align 8
  store ptr %93, ptr %11, align 8
  call void @llvm.lifetime.end.p0(i64 8, ptr %20) #6
  br label %101

94:                                               ; preds = %43
  %95 = load ptr, ptr %10, align 8
  %96 = load ptr, ptr %12, align 8
  %97 = load ptr, ptr %14, align 8
  %98 = getelementptr inbounds nuw %struct.MessageHeader, ptr %97, i32 0, i32 6
  %99 = load i32, ptr %98, align 8
  %100 = call ptr (ptr, ptr, ptr, ptr, ...) @expert_add_info_format(ptr noundef %95, ptr noundef %96, ptr noundef @ei_gias_unknown_exception, ptr noundef @.str.826, i32 noundef %99)
  br label %101

101:                                              ; preds = %94, %43, %92
  br label %110

102:                                              ; preds = %8
  %103 = load ptr, ptr %10, align 8
  %104 = load ptr, ptr %12, align 8
  %105 = load ptr, ptr %14, align 8
  %106 = getelementptr inbounds nuw %struct.MessageHeader, ptr %105, i32 0, i32 3
  %107 = load i8, ptr %106, align 1
  %108 = zext i8 %107 to i32
  %109 = call ptr (ptr, ptr, ptr, ptr, ...) @expert_add_info_format(ptr noundef %103, ptr noundef %104, ptr noundef @ei_gias_unknown_giop_msg, ptr noundef @.str.827, i32 noundef %108)
  br label %110

110:                                              ; preds = %102, %101, %27
  call void @llvm.lifetime.end.p0(i64 4, ptr %18) #6
  call void @llvm.lifetime.end.p0(i64 4, ptr %17) #6
  ret void
}